target datalayout = "e-m:e-p270:32:32-p271:32:32-p272:64:64-i64:64-i128:128-f80:128-n8:16:32:64-S128"
target triple = "x86_64-pc-linux-gnu"

@.str.5 = private unnamed_addr constant [10 x i8] c"wsmp.psid\00", align 1
@proto_register_wsmp.ett = internal global [6 x ptr] [ptr @ett_wsmp, ptr @ett_wsmdata, ptr @ett_wsmp_n_hdr, ptr @ett_wsmp_t_hdr, ptr @ett_wsmp_ie_ext, ptr @ett_wsmp_ie], align 16
@.str.36 = private unnamed_addr constant [42 x i8] c"Wave Short Message Protocol(IEEE P1609.3)\00", align 1
@.str.37 = private unnamed_addr constant [5 x i8] c"WSMP\00", align 1
@.str.38 = private unnamed_addr constant [5 x i8] c"wsmp\00", align 1
@proto_wsmp = internal global i32 0, align 4
@wsmp_handle = internal global ptr null, align 8
@.str.39 = private unnamed_addr constant [17 x i8] c"WSMP known PSIDs\00", align 1
@ieee1609dot2_psid_table = internal global ptr null, align 8

; Function Attrs: null_pointer_is_valid sspstrong uwtable
define hidden void @proto_register_wsmp() #0 {
  %1 = alloca ptr, align 8
  call void @llvm.lifetime.start.p0(i64 8, ptr %1) #3
  %2 = call i32 @proto_register_protocol(ptr noundef @.str.36, ptr noundef @.str.37, ptr noundef @.str.38)
  store i32 %2, ptr @proto_wsmp, align 4
  %3 = load i32, ptr @proto_wsmp, align 4
  call void @proto_register_field_array(i32 noundef %3, ptr noundef @proto_register_wsmp.hf, i32 noundef 17)
  call void @proto_register_subtree_array(ptr noundef @proto_register_wsmp.ett, i32 noundef 6)
  %4 = load i32, ptr @proto_wsmp, align 4
  %5 = call ptr @expert_register_protocol(i32 noundef %4)
  store ptr %5, ptr %1, align 8
  %6 = load ptr, ptr %1, align 8
  call void @expert_register_field_array(ptr noundef %6, ptr noundef @proto_register_wsmp.ei, i32 noundef 2)
  %7 = load i32, ptr @proto_wsmp, align 4
  %8 = call ptr @register_dissector(ptr noundef @.str.38, ptr noundef @dissect_wsmp, i32 noundef %7)
  store ptr %8, ptr @wsmp_handle, align 8
  %9 = load i32, ptr @proto_wsmp, align 4
  %10 = call ptr @register_dissector_table(ptr noundef @.str.5, ptr noundef @.str.39, i32 noundef %9, i32 noundef 7, i32 noundef 1)
  store ptr %10, ptr @ieee1609dot2_psid_table, align 8
  call void @llvm.lifetime.end.p0(i64 8, ptr %1) #3
  ret void
}