; Function Attrs: null_pointer_is_valid sspstrong uwtable
define hidden void @proto_register_wsmp() local_unnamed_addr #0 {
  %1 = tail call i32 @proto_register_protocol(ptr noundef nonnull @.str.36, ptr noundef nonnull @.str.37, ptr noundef nonnull @.str.38)
  store i32 %1, ptr @proto_wsmp, align 4
  tail call void @proto_register_field_array(i32 noundef %1, ptr noundef nonnull @proto_register_wsmp.hf, i32 noundef 17)
  tail call void @proto_register_subtree_array(ptr noundef nonnull @proto_register_wsmp.ett, i32 noundef 6)
  %2 = load i32, ptr @proto_wsmp, align 4
  %3 = tail call ptr @expert_register_protocol(i32 noundef %2)
  tail call void @expert_register_field_array(ptr noundef %3, ptr noundef nonnull @proto_register_wsmp.ei, i32 noundef 2)
  %4 = load i32, ptr @proto_wsmp, align 4
  %5 = tail call ptr @register_dissector(ptr noundef nonnull @.str.38, ptr noundef nonnull @dissect_wsmp, i32 noundef %4)
  store ptr %5, ptr @wsmp_handle, align 8
  %6 = load i32, ptr @proto_wsmp, align 4
  %7 = tail call ptr @register_dissector_table(ptr noundef nonnull @.str.5, ptr noundef nonnull @.str.39, i32 noundef %6, i32 noundef 7, i32 noundef 1)
  store ptr %7, ptr @ieee1609dot2_psid_table, align 8
  ret void
}